target datalayout = "e-m:e-p270:32:32-p271:32:32-p272:64:64-i64:64-i128:128-f80:128-n8:16:32:64-S128"
target triple = "x86_64-unknown-linux-gnu"

%"class.cvc5::internal::NodeTemplate" = type { ptr }
%"class.cvc5::internal::TypeNode" = type { ptr }
%"class.cvc5::internal::proof::AlfNodeConverter" = type { %"class.cvc5::internal::NodeConverter.base", %"class.std::unordered_set", %"class.cvc5::internal::TypeNode", %"class.std::map", %"class.std::map.37", %"class.std::map.45" }
%"class.cvc5::internal::NodeConverter.base" = type <{ ptr, %"class.std::unordered_map", %"class.std::unordered_map", %"class.std::unordered_map.2", %"class.std::unordered_map.2", i8 }>
%"class.std::unordered_map" = type { %"class.std::_Hashtable" }
%"class.std::_Hashtable" = type { ptr, i64, %"struct.std::__detail::_Hash_node_base", i64, %"struct.std::__detail::_Prime_rehash_policy", ptr }
%"struct.std::__detail::_Hash_node_base" = type { ptr }
%"struct.std::__detail::_Prime_rehash_policy" = type { float, i64 }
%"class.std::unordered_map.2" = type { %"class.std::_Hashtable.3" }
%"class.std::_Hashtable.3" = type { ptr, i64, %"struct.std::__detail::_Hash_node_base", i64, %"struct.std::__detail::_Prime_rehash_policy", ptr }
%"class.std::unordered_set" = type { %"class.std::_Hashtable.21" }
%"class.std::_Hashtable.21" = type { ptr, i64, %"struct.std::__detail::_Hash_node_base", i64, %"struct.std::__detail::_Prime_rehash_policy", ptr }
%"class.std::map" = type { %"class.std::_Rb_tree" }
%"class.std::_Rb_tree" = type { %"struct.std::_Rb_tree<cvc5::internal::NodeTemplate<true>, std::pair<const cvc5::internal::NodeTemplate<true>, unsigned long>, std::_Select1st<std::pair<const cvc5::internal::NodeTemplate<true>, unsigned long>>, std::less<cvc5::internal::NodeTemplate<true>>>::_Rb_tree_impl" }
%"struct.std::_Rb_tree<cvc5::internal::NodeTemplate<true>, std::pair<const cvc5::internal::NodeTemplate<true>, unsigned long>, std::_Select1st<std::pair<const cvc5::internal::NodeTemplate<true>, unsigned long>>, std::less<cvc5::internal::NodeTemplate<true>>>::_Rb_tree_impl" = type { %"struct.std::_Rb_tree_key_compare", %"struct.std::_Rb_tree_header" }
%"struct.std::_Rb_tree_key_compare" = type { %"struct.std::less" }
%"struct.std::less" = type { i8 }
%"struct.std::_Rb_tree_header" = type { %"struct.std::_Rb_tree_node_base", i64 }
%"struct.std::_Rb_tree_node_base" = type { i32, ptr, ptr, ptr }
%"class.std::map.37" = type { %"class.std::_Rb_tree.38" }
%"class.std::_Rb_tree.38" = type { %"struct.std::_Rb_tree<std::__cxx11::basic_string<char>, std::pair<const std::__cxx11::basic_string<char>, unsigned long>, std::_Select1st<std::pair<const std::__cxx11::basic_string<char>, unsigned long>>, std::less<std::__cxx11::basic_string<char>>>::_Rb_tree_impl" }
%"struct.std::_Rb_tree<std::__cxx11::basic_string<char>, std::pair<const std::__cxx11::basic_string<char>, unsigned long>, std::_Select1st<std::pair<const std::__cxx11::basic_string<char>, unsigned long>>, std::less<std::__cxx11::basic_string<char>>>::_Rb_tree_impl" = type { %"struct.std::_Rb_tree_key_compare.42", %"struct.std::_Rb_tree_header" }
%"struct.std::_Rb_tree_key_compare.42" = type { %"struct.std::less.43" }
%"struct.std::less.43" = type { i8 }
%"class.std::map.45" = type { %"class.std::_Rb_tree.46" }
%"class.std::_Rb_tree.46" = type { %"struct.std::_Rb_tree<cvc5::internal::TypeNode, std::pair<const cvc5::internal::TypeNode, cvc5::internal::NodeTemplate<true>>, std::_Select1st<std::pair<const cvc5::internal::TypeNode, cvc5::internal::NodeTemplate<true>>>, std::less<cvc5::internal::TypeNode>>::_Rb_tree_impl" }
%"struct.std::_Rb_tree<cvc5::internal::TypeNode, std::pair<const cvc5::internal::TypeNode, cvc5::internal::NodeTemplate<true>>, std::_Select1st<std::pair<const cvc5::internal::TypeNode, cvc5::internal::NodeTemplate<true>>>, std::less<cvc5::internal::TypeNode>>::_Rb_tree_impl" = type { %"struct.std::_Rb_tree_key_compare.50", %"struct.std::_Rb_tree_header" }
%"struct.std::_Rb_tree_key_compare.50" = type { %"struct.std::less.51" }
%"struct.std::less.51" = type { i8 }
%"struct.std::pair.183" = type <{ %"struct.std::__detail::_Node_iterator", i8, [7 x i8] }>
%"struct.std::__detail::_Node_iterator" = type { %"struct.std::__detail::_Node_iterator_base" }
%"struct.std::__detail::_Node_iterator_base" = type { ptr }
%"struct.std::__detail::_Identity" = type { i8 }
%"struct.std::__detail::_AllocNode" = type { ptr }

; Function Attrs: mustprogress nounwind uwtable
define linkonce_odr hidden noundef nonnull align 8 dereferenceable(8) ptr @_ZNSt10_HashtableIN4cvc58internal12NodeTemplateILb1EEES3_SaIS3_ENSt8__detail9_IdentityESt8equal_toIS3_ESt4hashIS3_ENS5_18_Mod_range_hashingENS5_20_Default_ranged_hashENS5_20_Prime_rehash_policyENS5_17_Hashtable_traitsILb1ELb1ELb1EEEE14_S_forward_keyERKS3_(ptr noundef nonnull align 8 dereferenceable(8) %__k) #5 comdat align 2 {
entry:
  %__k.addr = alloca ptr, align 8
  store ptr %__k, ptr %__k.addr, align 8
  %0 = load ptr, ptr %__k.addr, align 8
  ret ptr %0
}

; Function Attrs: mustprogress nounwind uwtable
define linkonce_odr hidden noundef nonnull align 8 dereferenceable(8) ptr @_ZNKSt8__detail9_IdentityclIRKN4cvc58internal12NodeTemplateILb1EEEEEOT_S9_(ptr noundef nonnull align 1 dereferenceable(1) %this, ptr noundef nonnull align 8 dereferenceable(8) %__x) #5 comdat align 2 {
entry:
  %this.addr = alloca ptr, align 8
  %__x.addr = alloca ptr, align 8
  store ptr %this, ptr %this.addr, align 8
  store ptr %__x, ptr %__x.addr, align 8
  %0 = load ptr, ptr %__x.addr, align 8
  ret ptr %0
}

; Function Attrs: mustprogress uwtable
define linkonce_odr hidden { ptr, i8 } @_ZNSt10_HashtableIN4cvc58internal12NodeTemplateILb1EEES3_SaIS3_ENSt8__detail9_IdentityESt8equal_toIS3_ESt4hashIS3_ENS5_18_Mod_range_hashingENS5_20_Default_ranged_hashENS5_20_Prime_rehash_policyENS5_17_Hashtable_traitsILb1ELb1ELb1EEEE9_M_insertIRKS3_NS5_10_AllocNodeISaINS5_10_Hash_nodeIS3_Lb1EEEEEEEESt4pairINS5_14_Node_iteratorIS3_Lb1ELb1EEEbEOT_RKT0_St17integral_constantIbLb1EE(ptr noundef nonnull align 8 dereferenceable(56) %this, ptr noundef nonnull align 8 dereferenceable(8) %__arg, ptr noundef nonnull align 8 dereferenceable(8) %__node_gen) #4 comdat align 2 {
entry:
  %retval = alloca %"struct.std::pair.183", align 8
  %this.addr = alloca ptr, align 8
  %__arg.addr = alloca ptr, align 8
  %__node_gen.addr = alloca ptr, align 8
  %ref.tmp = alloca %"struct.std::__detail::_Identity", align 1
  store ptr %this, ptr %this.addr, align 8
  store ptr %__arg, ptr %__arg.addr, align 8
  store ptr %__node_gen, ptr %__node_gen.addr, align 8
  %this1 = load ptr, ptr %this.addr, align 8
  %0 = load ptr, ptr %__arg.addr, align 8
  %call = call noundef nonnull align 8 dereferenceable(8) ptr @_ZNKSt8__detail9_IdentityclIRKN4cvc58internal12NodeTemplateILb1EEEEEOT_S9_(ptr noundef nonnull align 1 dereferenceable(1) %ref.tmp, ptr noundef nonnull align 8 dereferenceable(8) %0) #3
  %call2 = call noundef nonnull align 8 dereferenceable(8) ptr @_ZNSt10_HashtableIN4cvc58internal12NodeTemplateILb1EEES3_SaIS3_ENSt8__detail9_IdentityESt8equal_toIS3_ESt4hashIS3_ENS5_18_Mod_range_hashingENS5_20_Default_ranged_hashENS5_20_Prime_rehash_policyENS5_17_Hashtable_traitsILb1ELb1ELb1EEEE14_S_forward_keyERKS3_(ptr noundef nonnull align 8 dereferenceable(8) %call)
  %1 = load ptr, ptr %__arg.addr, align 8
  %2 = load ptr, ptr %__node_gen.addr, align 8
  %call3 = call { ptr, i8 } @_ZNSt10_HashtableIN4cvc58internal12NodeTemplateILb1EEES3_SaIS3_ENSt8__detail9_IdentityESt8equal_toIS3_ESt4hashIS3_ENS5_18_Mod_range_hashingENS5_20_Default_ranged_hashENS5_20_Prime_rehash_policyENS5_17_Hashtable_traitsILb1ELb1ELb1EEEE16_M_insert_uniqueIRKS3_SJ_NS5_10_AllocNodeISaINS5_10_Hash_nodeIS3_Lb1EEEEEEEESt4pairINS5_14_Node_iteratorIS3_Lb1ELb1EEEbEOT_OT0_RKT1_(ptr noundef nonnull align 8 dereferenceable(56) %this1, ptr noundef nonnull align 8 dereferenceable(8) %call2, ptr noundef nonnull align 8 dereferenceable(8) %1, ptr noundef nonnull align 8 dereferenceable(8) %2)
  %3 = getelementptr inbounds { ptr, i8 }, ptr %retval, i32 0, i32 0
  %4 = extractvalue { ptr, i8 } %call3, 0
  store ptr %4, ptr %3, align 8
  %5 = getelementptr inbounds { ptr, i8 }, ptr %retval, i32 0, i32 1
  %6 = extractvalue { ptr, i8 } %call3, 1
  store i8 %6, ptr %5, align 8
  %7 = load { ptr, i8 }, ptr %retval, align 8
  ret { ptr, i8 } %7
}

; Function Attrs: mustprogress nounwind uwtable
define linkonce_odr hidden void @_ZNSt8__detail10_AllocNodeISaINS_10_Hash_nodeIN4cvc58internal12NodeTemplateILb1EEELb1EEEEEC2ERNS_16_Hashtable_allocIS7_EE(ptr noundef nonnull align 8 dereferenceable(8) %this, ptr noundef nonnull align 1 dereferenceable(1) %__h) unnamed_addr #5 comdat align 2 {
entry:
  %this.addr = alloca ptr, align 8
  %__h.addr = alloca ptr, align 8
  store ptr %this, ptr %this.addr, align 8
  store ptr %__h, ptr %__h.addr, align 8
  %this1 = load ptr, ptr %this.addr, align 8
  %_M_h = getelementptr inbounds %"struct.std::__detail::_AllocNode", ptr %this1, i32 0, i32 0
  %0 = load ptr, ptr %__h.addr, align 8
  store ptr %0, ptr %_M_h, align 8
  ret void
}

; Function Attrs: mustprogress nounwind uwtable
define linkonce_odr hidden noundef nonnull align 8 dereferenceable(56) ptr @_ZNSt8__detail12_Insert_baseIN4cvc58internal12NodeTemplateILb1EEES4_SaIS4_ENS_9_IdentityESt8equal_toIS4_ESt4hashIS4_ENS_18_Mod_range_hashingENS_20_Default_ranged_hashENS_20_Prime_rehash_policyENS_17_Hashtable_traitsILb1ELb1ELb1EEEE20_M_conjure_hashtableEv(ptr noundef nonnull align 1 dereferenceable(1) %this) #5 comdat align 2 {
entry:
  %this.addr = alloca ptr, align 8
  store ptr %this, ptr %this.addr, align 8
  %this1 = load ptr, ptr %this.addr, align 8
  ret ptr %this1
}

; Function Attrs: mustprogress uwtable
define linkonce_odr hidden { ptr, i8 } @_ZNSt8__detail12_Insert_baseIN4cvc58internal12NodeTemplateILb1EEES4_SaIS4_ENS_9_IdentityESt8equal_toIS4_ESt4hashIS4_ENS_18_Mod_range_hashingENS_20_Default_ranged_hashENS_20_Prime_rehash_policyENS_17_Hashtable_traitsILb1ELb1ELb1EEEE6insertERKS4_(ptr noundef nonnull align 1 dereferenceable(1) %this, ptr noundef nonnull align 8 dereferenceable(8) %__v) #4 comdat align 2 {
entry:
  %retval = alloca %"struct.std::pair.183", align 8
  %this.addr = alloca ptr, align 8
  %__v.addr = alloca ptr, align 8
  %__h = alloca ptr, align 8
  %__node_gen = alloca %"struct.std::__detail::_AllocNode", align 8
  store ptr %this, ptr %this.addr, align 8
  store ptr %__v, ptr %__v.addr, align 8
  %this1 = load ptr, ptr %this.addr, align 8
  %call = call noundef nonnull align 8 dereferenceable(56) ptr @_ZNSt8__detail12_Insert_baseIN4cvc58internal12NodeTemplateILb1EEES4_SaIS4_ENS_9_IdentityESt8equal_toIS4_ESt4hashIS4_ENS_18_Mod_range_hashingENS_20_Default_ranged_hashENS_20_Prime_rehash_policyENS_17_Hashtable_traitsILb1ELb1ELb1EEEE20_M_conjure_hashtableEv(ptr noundef nonnull align 1 dereferenceable(1) %this1)
  store ptr %call, ptr %__h, align 8
  %0 = load ptr, ptr %__h, align 8
  call void @_ZNSt8__detail10_AllocNodeISaINS_10_Hash_nodeIN4cvc58internal12NodeTemplateILb1EEELb1EEEEEC2ERNS_16_Hashtable_allocIS7_EE(ptr noundef nonnull align 8 dereferenceable(8) %__node_gen, ptr noundef nonnull align 1 dereferenceable(1) %0)
  %1 = load ptr, ptr %__h, align 8
  %2 = load ptr, ptr %__v.addr, align 8
  %call2 = call { ptr, i8 } @_ZNSt10_HashtableIN4cvc58internal12NodeTemplateILb1EEES3_SaIS3_ENSt8__detail9_IdentityESt8equal_toIS3_ESt4hashIS3_ENS5_18_Mod_range_hashingENS5_20_Default_ranged_hashENS5_20_Prime_rehash_policyENS5_17_Hashtable_traitsILb1ELb1ELb1EEEE9_M_insertIRKS3_NS5_10_AllocNodeISaINS5_10_Hash_nodeIS3_Lb1EEEEEEEESt4pairINS5_14_Node_iteratorIS3_Lb1ELb1EEEbEOT_RKT0_St17integral_constantIbLb1EE(ptr noundef nonnull align 8 dereferenceable(56) %1, ptr noundef nonnull align 8 dereferenceable(8) %2, ptr noundef nonnull align 8 dereferenceable(8) %__node_gen)
  %3 = getelementptr inbounds { ptr, i8 }, ptr %retval, i32 0, i32 0
  %4 = extractvalue { ptr, i8 } %call2, 0
  store ptr %4, ptr %3, align 8
  %5 = getelementptr inbounds { ptr, i8 }, ptr %retval, i32 0, i32 1
  %6 = extractvalue { ptr, i8 } %call2, 1
  store i8 %6, ptr %5, align 8
  %7 = load { ptr, i8 }, ptr %retval, align 8
  ret { ptr, i8 } %7
}

; Function Attrs: mustprogress uwtable
define linkonce_odr hidden { ptr, i8 } @_ZNSt13unordered_setIN4cvc58internal12NodeTemplateILb1EEESt4hashIS3_ESt8equal_toIS3_ESaIS3_EE6insertERKS3_(ptr noundef nonnull align 8 dereferenceable(56) %this, ptr noundef nonnull align 8 dereferenceable(8) %__x) #4 comdat align 2 {
entry:
  %retval = alloca %"struct.std::pair.183", align 8
  %this.addr = alloca ptr, align 8
  %__x.addr = alloca ptr, align 8
  store ptr %this, ptr %this.addr, align 8
  store ptr %__x, ptr %__x.addr, align 8
  %this1 = load ptr, ptr %this.addr, align 8
  %_M_h = getelementptr inbounds %"class.std::unordered_set", ptr %this1, i32 0, i32 0
  %0 = load ptr, ptr %__x.addr, align 8
  %call = call { ptr, i8 } @_ZNSt8__detail12_Insert_baseIN4cvc58internal12NodeTemplateILb1EEES4_SaIS4_ENS_9_IdentityESt8equal_toIS4_ESt4hashIS4_ENS_18_Mod_range_hashingENS_20_Default_ranged_hashENS_20_Prime_rehash_policyENS_17_Hashtable_traitsILb1ELb1ELb1EEEE6insertERKS4_(ptr noundef nonnull align 1 dereferenceable(1) %_M_h, ptr noundef nonnull align 8 dereferenceable(8) %0)
  %1 = getelementptr inbounds { ptr, i8 }, ptr %retval, i32 0, i32 0
  %2 = extractvalue { ptr, i8 } %call, 0
  store ptr %2, ptr %1, align 8
  %3 = getelementptr inbounds { ptr, i8 }, ptr %retval, i32 0, i32 1
  %4 = extractvalue { ptr, i8 } %call, 1
  store i8 %4, ptr %3, align 8
  %5 = load { ptr, i8 }, ptr %retval, align 8
  ret { ptr, i8 } %5
}

; Function Attrs: mustprogress uwtable
define hidden void @_ZN4cvc58internal5proof16AlfNodeConverter16mkInternalSymbolERKNSt7__cxx1112basic_stringIcSt11char_traitsIcESaIcEEENS0_8TypeNodeEb(ptr noalias sret(%"class.cvc5::internal::NodeTemplate") align 8 %agg.result, ptr noundef nonnull align 8 dereferenceable(448) %this, ptr noundef nonnull align 8 dereferenceable(32) %name, ptr noundef %tn, i1 noundef zeroext %useRawSym) #4 align 2 personality ptr @__gxx_personality_v0 {
entry:
  %result.ptr = alloca ptr, align 8
  %this.addr = alloca ptr, align 8
  %name.addr = alloca ptr, align 8
  %tn.indirect_addr = alloca ptr, align 8
  %useRawSym.addr = alloca i8, align 1
  %nm = alloca ptr, align 8
  %nrvo = alloca i1, align 1
  %exn.slot = alloca ptr, align 8
  %ehselector.slot = alloca i32, align 4
  %coerce = alloca %"struct.std::pair.183", align 8
  store ptr %agg.result, ptr %result.ptr, align 8
  store ptr %this, ptr %this.addr, align 8
  store ptr %name, ptr %name.addr, align 8
  store ptr %tn, ptr %tn.indirect_addr, align 8
  %frombool = zext i1 %useRawSym to i8
  store i8 %frombool, ptr %useRawSym.addr, align 1
  %this1 = load ptr, ptr %this.addr, align 8
  %call = call noundef ptr @_ZN4cvc58internal11NodeManager9currentNMEv()
  store ptr %call, ptr %nm, align 8
  store i1 false, ptr %nrvo, align 1
  %0 = load i8, ptr %useRawSym.addr, align 1
  %tobool = trunc i8 %0 to i1
  br i1 %tobool, label %cond.true, label %cond.false

cond.true:                                        ; preds = %entry
  %1 = load ptr, ptr %nm, align 8
  %2 = load ptr, ptr %name.addr, align 8
  call void @_ZN4cvc58internal11NodeManager11mkRawSymbolERKNSt7__cxx1112basic_stringIcSt11char_traitsIcESaIcEEERKNS0_8TypeNodeE(ptr sret(%"class.cvc5::internal::NodeTemplate") align 8 %agg.result, ptr noundef nonnull align 8 dereferenceable(3360) %1, ptr noundef nonnull align 8 dereferenceable(32) %2, ptr noundef nonnull align 8 dereferenceable(8) %tn)
  br label %cond.end

cond.false:                                       ; preds = %entry
  %3 = load ptr, ptr %nm, align 8
  %4 = load ptr, ptr %name.addr, align 8
  call void @_ZN4cvc58internal11NodeManager10mkBoundVarERKNSt7__cxx1112basic_stringIcSt11char_traitsIcESaIcEEERKNS0_8TypeNodeE(ptr sret(%"class.cvc5::internal::NodeTemplate") align 8 %agg.result, ptr noundef nonnull align 8 dereferenceable(3360) %3, ptr noundef nonnull align 8 dereferenceable(32) %4, ptr noundef nonnull align 8 dereferenceable(8) %tn)
  br label %cond.end

cond.end:                                         ; preds = %cond.false, %cond.true
  %d_symbols = getelementptr inbounds %"class.cvc5::internal::proof::AlfNodeConverter", ptr %this1, i32 0, i32 1
  %call2 = invoke { ptr, i8 } @_ZNSt13unordered_setIN4cvc58internal12NodeTemplateILb1EEESt4hashIS3_ESt8equal_toIS3_ESaIS3_EE6insertERKS3_(ptr noundef nonnull align 8 dereferenceable(56) %d_symbols, ptr noundef nonnull align 8 dereferenceable(8) %agg.result)
          to label %invoke.cont unwind label %lpad

invoke.cont:                                      ; preds = %cond.end
  %5 = getelementptr inbounds { ptr, i8 }, ptr %coerce, i32 0, i32 0
  %6 = extractvalue { ptr, i8 } %call2, 0
  store ptr %6, ptr %5, align 8
  %7 = getelementptr inbounds { ptr, i8 }, ptr %coerce, i32 0, i32 1
  %8 = extractvalue { ptr, i8 } %call2, 1
  store i8 %8, ptr %7, align 8
  store i1 true, ptr %nrvo, align 1
  %nrvo.val = load i1, ptr %nrvo, align 1
  br i1 %nrvo.val, label %nrvo.skipdtor, label %nrvo.unused

lpad:                                             ; preds = %cond.end
  %9 = landingpad { ptr, i32 }
          cleanup
  %10 = extractvalue { ptr, i32 } %9, 0
  store ptr %10, ptr %exn.slot, align 8
  %11 = extractvalue { ptr, i32 } %9, 1
  store i32 %11, ptr %ehselector.slot, align 4
  call void @_ZN4cvc58internal12NodeTemplateILb1EED2Ev(ptr noundef nonnull align 8 dereferenceable(8) %agg.result) #3
  br label %eh.resume

nrvo.unused:                                      ; preds = %invoke.cont
  call void @_ZN4cvc58internal12NodeTemplateILb1EED2Ev(ptr noundef nonnull align 8 dereferenceable(8) %agg.result) #3
  br label %nrvo.skipdtor

nrvo.skipdtor:                                    ; preds = %nrvo.unused, %invoke.cont
  ret void

eh.resume:                                        ; preds = %lpad
  %exn = load ptr, ptr %exn.slot, align 8
  %sel = load i32, ptr %ehselector.slot, align 4
  %lpad.val = insertvalue { ptr, i32 } poison, ptr %exn, 0
  %lpad.val3 = insertvalue { ptr, i32 } %lpad.val, i32 %sel, 1
  resume { ptr, i32 } %lpad.val3
}