; Function Attrs: mustprogress uwtable
define hidden void @_ZN4cvc58internal5proof16AlfNodeConverter16mkInternalSymbolERKNSt7__cxx1112basic_stringIcSt11char_traitsIcESaIcEEENS0_8TypeNodeEb(ptr noalias sret(%"class.cvc5::internal::NodeTemplate") align 8 %agg.result, ptr noundef nonnull align 8 dereferenceable(448) %this, ptr noundef nonnull align 8 dereferenceable(32) %name, ptr noundef %tn, i1 noundef zeroext %useRawSym) local_unnamed_addr #3 align 2 personality ptr @__gxx_personality_v0 {
entry:
  %__node_gen.i.i = alloca %"struct.std::__detail::_AllocNode", align 8
  %call = tail call noundef ptr @_ZN4cvc58internal11NodeManager9currentNMEv()
  br i1 %useRawSym, label %cond.true, label %cond.false

cond.true:                                        ; preds = %entry
  tail call void @_ZN4cvc58internal11NodeManager11mkRawSymbolERKNSt7__cxx1112basic_stringIcSt11char_traitsIcESaIcEEERKNS0_8TypeNodeE(ptr sret(%"class.cvc5::internal::NodeTemplate") align 8 %agg.result, ptr noundef nonnull align 8 dereferenceable(3360) %call, ptr noundef nonnull align 8 dereferenceable(32) %name, ptr noundef nonnull align 8 dereferenceable(8) %tn)
  br label %cond.end

cond.false:                                       ; preds = %entry
  tail call void @_ZN4cvc58internal11NodeManager10mkBoundVarERKNSt7__cxx1112basic_stringIcSt11char_traitsIcESaIcEEERKNS0_8TypeNodeE(ptr sret(%"class.cvc5::internal::NodeTemplate") align 8 %agg.result, ptr noundef nonnull align 8 dereferenceable(3360) %call, ptr noundef nonnull align 8 dereferenceable(32) %name, ptr noundef nonnull align 8 dereferenceable(8) %tn)
  br label %cond.end

cond.end:                                         ; preds = %cond.false, %cond.true
  %d_symbols = getelementptr inbounds i8, ptr %this, i64 240
  call void @llvm.lifetime.start.p0(i64 8, ptr nonnull %__node_gen.i.i)
  store ptr %d_symbols, ptr %__node_gen.i.i, align 8
  %call3.i.i.i3 = invoke { ptr, i8 } @_ZNSt10_HashtableIN4cvc58internal12NodeTemplateILb1EEES3_SaIS3_ENSt8__detail9_IdentityESt8equal_toIS3_ESt4hashIS3_ENS5_18_Mod_range_hashingENS5_20_Default_ranged_hashENS5_20_Prime_rehash_policyENS5_17_Hashtable_traitsILb1ELb1ELb1EEEE16_M_insert_uniqueIRKS3_SJ_NS5_10_AllocNodeISaINS5_10_Hash_nodeIS3_Lb1EEEEEEEESt4pairINS5_14_Node_iteratorIS3_Lb1ELb1EEEbEOT_OT0_RKT1_(ptr noundef nonnull align 8 dereferenceable(56) %d_symbols, ptr noundef nonnull align 8 dereferenceable(8) %agg.result, ptr noundef nonnull align 8 dereferenceable(8) %agg.result, ptr noundef nonnull align 8 dereferenceable(8) %__node_gen.i.i)
          to label %nrvo.skipdtor unwind label %lpad

lpad:                                             ; preds = %cond.end
  %0 = landingpad { ptr, i32 }
          cleanup
  call void @_ZN4cvc58internal12NodeTemplateILb1EED2Ev(ptr noundef nonnull align 8 dereferenceable(8) %agg.result) #17
  resume { ptr, i32 } %0

nrvo.skipdtor:                                    ; preds = %cond.end
  call void @llvm.lifetime.end.p0(i64 8, ptr nonnull %__node_gen.i.i)
  ret void
}